; Function Attrs: mustprogress nofree norecurse nosync nounwind willreturn memory(readwrite, inaccessiblemem: none) uwtable
define void @_ZN4pkpy15CodeEmitContext10patch_jumpEi(ptr noundef nonnull readonly align 8 captures(none) dereferenceable(232) %0, i32 noundef %1) local_unnamed_addr #7 align 2 {
  %3 = getelementptr inbounds nuw i8, ptr %0, i64 24
  %4 = load ptr, ptr %3, align 8
  %5 = getelementptr inbounds nuw i8, ptr %4, i64 48
  %6 = getelementptr inbounds nuw i8, ptr %4, i64 56
  %7 = load ptr, ptr %6, align 8
  %8 = load ptr, ptr %5, align 8
  %9 = ptrtoint ptr %7 to i64
  %10 = ptrtoint ptr %8 to i64
  %11 = sub i64 %9, %10
  %12 = lshr exact i64 %11, 2
  %13 = trunc i64 %12 to i16
  %14 = sext i32 %1 to i64
  %15 = getelementptr inbounds %"struct.pkpy::Bytecode", ptr %8, i64 %14, i32 1
  store i16 %13, ptr %15, align 2
  ret void
}